target datalayout = "e-m:e-p270:32:32-p271:32:32-p272:64:64-i64:64-i128:128-f80:128-n8:16:32:64-S128"
target triple = "x86_64-pc-linux-gnu"

%struct._zval_struct = type { %union._zend_value, %union.anon, %union.anon.2 }
%union._zend_value = type { i64 }
%union.anon = type { i32 }
%union.anon.2 = type { i32 }
%struct._zend_execute_data = type { ptr, ptr, ptr, ptr, %struct._zval_struct, ptr, ptr, ptr, ptr }
%struct.anon.0 = type { i8, i8, %union.anon.1 }
%union.anon.1 = type { i16 }

@.str.2 = private unnamed_addr constant [7 x i8] c"stream\00", align 1

; Function Attrs: alwaysinline nounwind uwtable
define internal zeroext i8 @zval_get_type(ptr noundef %0) #7 {
  %2 = alloca ptr, align 8
  store ptr %0, ptr %2, align 8, !tbaa !30
  %3 = load ptr, ptr %2, align 8, !tbaa !30
  %4 = getelementptr inbounds nuw %struct._zval_struct, ptr %3, i32 0, i32 1
  %5 = getelementptr inbounds nuw %struct.anon.0, ptr %4, i32 0, i32 0
  %6 = load i8, ptr %5, align 8, !tbaa !17
  ret i8 %6
}

; Function Attrs: alwaysinline nounwind uwtable
define internal zeroext i1 @zend_parse_arg_resource(ptr noundef %0, ptr noundef %1, i1 noundef zeroext %2) #7 {
  %4 = alloca i1, align 1
  %5 = alloca ptr, align 8
  %6 = alloca ptr, align 8
  %7 = alloca i8, align 1
  store ptr %0, ptr %5, align 8, !tbaa !30
  store ptr %1, ptr %6, align 8, !tbaa !67
  %8 = zext i1 %2 to i8
  store i8 %8, ptr %7, align 1, !tbaa !64
  %9 = load ptr, ptr %5, align 8, !tbaa !30
  %10 = call zeroext i8 @zval_get_type(ptr noundef %9)
  %11 = zext i8 %10 to i32
  %12 = icmp eq i32 %11, 9
  %13 = xor i1 %12, true
  %14 = xor i1 %13, true
  %15 = zext i1 %14 to i32
  %16 = sext i32 %15 to i64
  %17 = call i64 @llvm.expect.i64(i64 %16, i64 1)
  %18 = icmp ne i64 %17, 0
  br i1 %18, label %19, label %22

19:                                               ; preds = %3
  %20 = load ptr, ptr %5, align 8, !tbaa !30
  %21 = load ptr, ptr %6, align 8, !tbaa !67
  store ptr %20, ptr %21, align 8, !tbaa !30
  br label %40

22:                                               ; preds = %3
  %23 = load i8, ptr %7, align 1, !tbaa !64, !range !65, !noundef !66
  %24 = trunc i8 %23 to i1
  br i1 %24, label %25, label %38

25:                                               ; preds = %22
  %26 = load ptr, ptr %5, align 8, !tbaa !30
  %27 = call zeroext i8 @zval_get_type(ptr noundef %26)
  %28 = zext i8 %27 to i32
  %29 = icmp eq i32 %28, 1
  %30 = xor i1 %29, true
  %31 = xor i1 %30, true
  %32 = zext i1 %31 to i32
  %33 = sext i32 %32 to i64
  %34 = call i64 @llvm.expect.i64(i64 %33, i64 1)
  %35 = icmp ne i64 %34, 0
  br i1 %35, label %36, label %38

36:                                               ; preds = %25
  %37 = load ptr, ptr %6, align 8, !tbaa !67
  store ptr null, ptr %37, align 8, !tbaa !30
  br label %39

38:                                               ; preds = %25, %22
  store i1 false, ptr %4, align 1
  br label %41

39:                                               ; preds = %36
  br label %40

40:                                               ; preds = %39, %19
  store i1 true, ptr %4, align 1
  br label %41

41:                                               ; preds = %40, %38
  %42 = load i1, ptr %4, align 1
  ret i1 %42
}

; Function Attrs: nounwind uwtable
define dso_local void @zif_fpassthru(ptr noundef %0, ptr noundef %1) #0 {
  %3 = alloca ptr, align 8
  %4 = alloca ptr, align 8
  %5 = alloca ptr, align 8
  %6 = alloca i64, align 8
  %7 = alloca ptr, align 8
  %8 = alloca i32, align 4
  %9 = alloca i32, align 4
  %10 = alloca i32, align 4
  %11 = alloca i32, align 4
  %12 = alloca i32, align 4
  %13 = alloca ptr, align 8
  %14 = alloca ptr, align 8
  %15 = alloca i32, align 4
  %16 = alloca ptr, align 8
  %17 = alloca i8, align 1
  %18 = alloca i8, align 1
  %19 = alloca i32, align 4
  %20 = alloca i32, align 4
  %21 = alloca ptr, align 8
  store ptr %0, ptr %3, align 8, !tbaa !62
  store ptr %1, ptr %4, align 8, !tbaa !30
  call void @llvm.lifetime.start.p0(i64 8, ptr %5) #14
  call void @llvm.lifetime.start.p0(i64 8, ptr %6) #14
  call void @llvm.lifetime.start.p0(i64 8, ptr %7) #14
  br label %22

22:                                               ; preds = %2
  call void @llvm.lifetime.start.p0(i64 4, ptr %8) #14
  store i32 0, ptr %8, align 4, !tbaa !4
  call void @llvm.lifetime.start.p0(i64 4, ptr %9) #14
  store i32 1, ptr %9, align 4, !tbaa !4
  call void @llvm.lifetime.start.p0(i64 4, ptr %10) #14
  store i32 1, ptr %10, align 4, !tbaa !4
  call void @llvm.lifetime.start.p0(i64 4, ptr %11) #14
  %23 = load ptr, ptr %3, align 8, !tbaa !62
  %24 = getelementptr inbounds nuw %struct._zend_execute_data, ptr %23, i32 0, i32 4
  %25 = getelementptr inbounds nuw %struct._zval_struct, ptr %24, i32 0, i32 2
  %26 = load i32, ptr %25, align 4, !tbaa !17
  store i32 %26, ptr %11, align 4, !tbaa !4
  call void @llvm.lifetime.start.p0(i64 4, ptr %12) #14
  store i32 0, ptr %12, align 4, !tbaa !4
  call void @llvm.lifetime.start.p0(i64 8, ptr %13) #14
  call void @llvm.lifetime.start.p0(i64 8, ptr %14) #14
  store ptr null, ptr %14, align 8, !tbaa !30
  call void @llvm.lifetime.start.p0(i64 4, ptr %15) #14
  store i32 0, ptr %15, align 4, !tbaa !4
  call void @llvm.lifetime.start.p0(i64 8, ptr %16) #14
  store ptr null, ptr %16, align 8, !tbaa !63
  call void @llvm.lifetime.start.p0(i64 1, ptr %17) #14
  store i8 0, ptr %17, align 1, !tbaa !64
  call void @llvm.lifetime.start.p0(i64 1, ptr %18) #14
  store i8 0, ptr %18, align 1, !tbaa !64
  call void @llvm.lifetime.start.p0(i64 4, ptr %19) #14
  store i32 0, ptr %19, align 4, !tbaa !4
  br label %27

27:                                               ; preds = %22
  %28 = load i32, ptr %11, align 4, !tbaa !4
  %29 = load i32, ptr %9, align 4, !tbaa !4
  %30 = icmp ult i32 %28, %29
  %31 = xor i1 %30, true
  %32 = xor i1 %31, true
  %33 = zext i1 %32 to i32
  %34 = sext i32 %33 to i64
  %35 = call i64 @llvm.expect.i64(i64 %34, i64 0)
  %36 = icmp ne i64 %35, 0
  br i1 %36, label %47, label %37

37:                                               ; preds = %27
  %38 = load i32, ptr %11, align 4, !tbaa !4
  %39 = load i32, ptr %10, align 4, !tbaa !4
  %40 = icmp ugt i32 %38, %39
  %41 = xor i1 %40, true
  %42 = xor i1 %41, true
  %43 = zext i1 %42 to i32
  %44 = sext i32 %43 to i64
  %45 = call i64 @llvm.expect.i64(i64 %44, i64 0)
  %46 = icmp ne i64 %45, 0
  br i1 %46, label %47, label %50

47:                                               ; preds = %37, %27
  %48 = load i32, ptr %9, align 4, !tbaa !4
  %49 = load i32, ptr %10, align 4, !tbaa !4
  call void @zend_wrong_parameters_count_error(i32 noundef %48, i32 noundef %49)
  store i32 1, ptr %19, align 4, !tbaa !4
  br label %113

50:                                               ; preds = %37
  %51 = load ptr, ptr %3, align 8, !tbaa !62
  %52 = getelementptr inbounds %struct._zval_struct, ptr %51, i64 4
  store ptr %52, ptr %13, align 8, !tbaa !30
  %53 = load i32, ptr %12, align 4, !tbaa !4
  %54 = add i32 %53, 1
  store i32 %54, ptr %12, align 4, !tbaa !4
  %55 = load i32, ptr %12, align 4, !tbaa !4
  %56 = load i32, ptr %9, align 4, !tbaa !4
  %57 = icmp ule i32 %55, %56
  br i1 %57, label %63, label %58

58:                                               ; preds = %50
  %59 = load i8, ptr %18, align 1, !tbaa !64, !range !65, !noundef !66
  %60 = trunc i8 %59 to i1
  %61 = zext i1 %60 to i32
  %62 = icmp eq i32 %61, 1
  br label %63

63:                                               ; preds = %58, %50
  %64 = phi i1 [ true, %50 ], [ %62, %58 ]
  call void @llvm.assume(i1 %64)
  %65 = load i32, ptr %12, align 4, !tbaa !4
  %66 = load i32, ptr %9, align 4, !tbaa !4
  %67 = icmp ugt i32 %65, %66
  br i1 %67, label %73, label %68

68:                                               ; preds = %63
  %69 = load i8, ptr %18, align 1, !tbaa !64, !range !65, !noundef !66
  %70 = trunc i8 %69 to i1
  %71 = zext i1 %70 to i32
  %72 = icmp eq i32 %71, 0
  br label %73

73:                                               ; preds = %68, %63
  %74 = phi i1 [ true, %63 ], [ %72, %68 ]
  call void @llvm.assume(i1 %74)
  %75 = load i8, ptr %18, align 1, !tbaa !64, !range !65, !noundef !66
  %76 = trunc i8 %75 to i1
  br i1 %76, label %77, label %89

77:                                               ; preds = %73
  %78 = load i32, ptr %12, align 4, !tbaa !4
  %79 = load i32, ptr %11, align 4, !tbaa !4
  %80 = icmp ugt i32 %78, %79
  %81 = xor i1 %80, true
  %82 = xor i1 %81, true
  %83 = zext i1 %82 to i32
  %84 = sext i32 %83 to i64
  %85 = call i64 @llvm.expect.i64(i64 %84, i64 0)
  %86 = icmp ne i64 %85, 0
  br i1 %86, label %87, label %88

87:                                               ; preds = %77
  br label %113

88:                                               ; preds = %77
  br label %89

89:                                               ; preds = %88, %73
  %90 = load ptr, ptr %13, align 8, !tbaa !30
  %91 = getelementptr inbounds nuw %struct._zval_struct, ptr %90, i32 1
  store ptr %91, ptr %13, align 8, !tbaa !30
  %92 = load ptr, ptr %13, align 8, !tbaa !30
  store ptr %92, ptr %14, align 8, !tbaa !30
  %93 = load ptr, ptr %14, align 8, !tbaa !30
  %94 = call zeroext i1 @zend_parse_arg_resource(ptr noundef %93, ptr noundef %5, i1 noundef zeroext false)
  %95 = xor i1 %94, true
  %96 = xor i1 %95, true
  %97 = xor i1 %96, true
  %98 = zext i1 %97 to i32
  %99 = sext i32 %98 to i64
  %100 = call i64 @llvm.expect.i64(i64 %99, i64 0)
  %101 = icmp ne i64 %100, 0
  br i1 %101, label %102, label %103

102:                                              ; preds = %89
  store i32 14, ptr %15, align 4, !tbaa !4
  store i32 9, ptr %19, align 4, !tbaa !4
  br label %113

103:                                              ; preds = %89
  %104 = load i32, ptr %12, align 4, !tbaa !4
  %105 = load i32, ptr %10, align 4, !tbaa !4
  %106 = icmp eq i32 %104, %105
  br i1 %106, label %110, label %107

107:                                              ; preds = %103
  %108 = load i32, ptr %10, align 4, !tbaa !4
  %109 = icmp eq i32 %108, -1
  br label %110

110:                                              ; preds = %107, %103
  %111 = phi i1 [ true, %103 ], [ %109, %107 ]
  call void @llvm.assume(i1 %111)
  br label %112

112:                                              ; preds = %110
  br label %113

113:                                              ; preds = %112, %102, %87, %47
  %114 = load i32, ptr %19, align 4, !tbaa !4
  %115 = icmp ne i32 %114, 0
  %116 = xor i1 %115, true
  %117 = xor i1 %116, true
  %118 = zext i1 %117 to i32
  %119 = sext i32 %118 to i64
  %120 = call i64 @llvm.expect.i64(i64 %119, i64 0)
  %121 = icmp ne i64 %120, 0
  br i1 %121, label %122, label %128

122:                                              ; preds = %113
  %123 = load i32, ptr %19, align 4, !tbaa !4
  %124 = load i32, ptr %12, align 4, !tbaa !4
  %125 = load ptr, ptr %16, align 8, !tbaa !63
  %126 = load i32, ptr %15, align 4, !tbaa !4
  %127 = load ptr, ptr %14, align 8, !tbaa !30
  call void @zend_wrong_parameter_error(i32 noundef %123, i32 noundef %124, ptr noundef %125, i32 noundef %126, ptr noundef %127)
  store i32 1, ptr %20, align 4
  br label %129

128:                                              ; preds = %113
  store i32 0, ptr %20, align 4
  br label %129

129:                                              ; preds = %128, %122
  call void @llvm.lifetime.end.p0(i64 4, ptr %19) #14
  call void @llvm.lifetime.end.p0(i64 1, ptr %18) #14
  call void @llvm.lifetime.end.p0(i64 1, ptr %17) #14
  call void @llvm.lifetime.end.p0(i64 8, ptr %16) #14
  call void @llvm.lifetime.end.p0(i64 4, ptr %15) #14
  call void @llvm.lifetime.end.p0(i64 8, ptr %14) #14
  call void @llvm.lifetime.end.p0(i64 8, ptr %13) #14
  call void @llvm.lifetime.end.p0(i64 4, ptr %12) #14
  call void @llvm.lifetime.end.p0(i64 4, ptr %11) #14
  call void @llvm.lifetime.end.p0(i64 4, ptr %10) #14
  call void @llvm.lifetime.end.p0(i64 4, ptr %9) #14
  call void @llvm.lifetime.end.p0(i64 4, ptr %8) #14
  %130 = load i32, ptr %20, align 4
  switch i32 %130, label %160 [
    i32 0, label %131
  ]

131:                                              ; preds = %129
  br label %132

132:                                              ; preds = %131
  br label %133

133:                                              ; preds = %132
  br label %134

134:                                              ; preds = %133
  %135 = load ptr, ptr %5, align 8, !tbaa !30
  %136 = getelementptr inbounds nuw %struct._zval_struct, ptr %135, i32 0, i32 0
  %137 = load ptr, ptr %136, align 8, !tbaa !17
  %138 = call i32 @php_file_le_stream()
  %139 = call i32 @php_file_le_pstream()
  %140 = call ptr @zend_fetch_resource2(ptr noundef %137, ptr noundef @.str.2, i32 noundef %138, i32 noundef %139)
  store ptr %140, ptr %7, align 8, !tbaa !27
  %141 = icmp eq ptr %140, null
  br i1 %141, label %142, label %143

142:                                              ; preds = %134
  store i32 1, ptr %20, align 4
  br label %160

143:                                              ; preds = %134
  br label %144

144:                                              ; preds = %143
  br label %145

145:                                              ; preds = %144
  %146 = load ptr, ptr %7, align 8, !tbaa !27
  %147 = call i64 @_php_stream_passthru(ptr noundef %146)
  store i64 %147, ptr %6, align 8, !tbaa !29
  br label %148

148:                                              ; preds = %145
  br label %149

149:                                              ; preds = %148
  call void @llvm.lifetime.start.p0(i64 8, ptr %21) #14
  %150 = load ptr, ptr %4, align 8, !tbaa !30
  store ptr %150, ptr %21, align 8, !tbaa !30
  %151 = load i64, ptr %6, align 8, !tbaa !29
  %152 = load ptr, ptr %21, align 8, !tbaa !30
  %153 = getelementptr inbounds nuw %struct._zval_struct, ptr %152, i32 0, i32 0
  store i64 %151, ptr %153, align 8, !tbaa !17
  %154 = load ptr, ptr %21, align 8, !tbaa !30
  %155 = getelementptr inbounds nuw %struct._zval_struct, ptr %154, i32 0, i32 1
  store i32 4, ptr %155, align 8, !tbaa !17
  call void @llvm.lifetime.end.p0(i64 8, ptr %21) #14
  br label %156

156:                                              ; preds = %149
  br label %157

157:                                              ; preds = %156
  store i32 1, ptr %20, align 4
  br label %160

158:                                              ; No predecessors!
  br label %159

159:                                              ; preds = %158
  store i32 0, ptr %20, align 4
  br label %160

160:                                              ; preds = %159, %157, %142, %129
  call void @llvm.lifetime.end.p0(i64 8, ptr %7) #14
  call void @llvm.lifetime.end.p0(i64 8, ptr %6) #14
  call void @llvm.lifetime.end.p0(i64 8, ptr %5) #14
  %161 = load i32, ptr %20, align 4
  switch i32 %161, label %163 [
    i32 0, label %162
    i32 1, label %162
  ]

162:                                              ; preds = %160, %160
  ret void

163:                                              ; preds = %160
  unreachable
}